target datalayout = "e-m:e-p270:32:32-p271:32:32-p272:64:64-i64:64-i128:128-f80:128-n8:16:32:64-S128"
target triple = "x86_64-pc-linux-gnu"

; Function Attrs: nounwind uwtable
define internal zeroext i1 @char_is_lower(i8 noundef signext %0) #0 {
  %2 = alloca i8, align 1
  store i8 %0, ptr %2, align 1
  %3 = load i8, ptr %2, align 1
  %4 = sext i8 %3 to i32
  %5 = icmp sge i32 %4, 97
  br i1 %5, label %6, label %10

6:                                                ; preds = %1
  %7 = load i8, ptr %2, align 1
  %8 = sext i8 %7 to i32
  %9 = icmp sle i32 %8, 122
  br label %10

10:                                               ; preds = %6, %1
  %11 = phi i1 [ false, %1 ], [ %9, %6 ]
  ret i1 %11
}

; Function Attrs: nounwind uwtable
define internal ptr @scan_past_underscore(ptr noundef %0) #0 {
  %2 = alloca ptr, align 8
  %3 = alloca ptr, align 8
  store ptr %0, ptr %3, align 8
  br label %4

4:                                                ; preds = %10, %1
  %5 = load ptr, ptr %3, align 8
  %6 = getelementptr inbounds i8, ptr %5, i64 0
  %7 = load i8, ptr %6, align 1
  %8 = sext i8 %7 to i32
  %9 = icmp eq i32 %8, 95
  br i1 %9, label %10, label %13

10:                                               ; preds = %4
  %11 = load ptr, ptr %3, align 8
  %12 = getelementptr inbounds i8, ptr %11, i32 1
  store ptr %12, ptr %3, align 8
  br label %4, !llvm.loop !13

13:                                               ; preds = %4
  %14 = load ptr, ptr %3, align 8
  %15 = getelementptr inbounds i8, ptr %14, i64 0
  %16 = load i8, ptr %15, align 1
  %17 = sext i8 %16 to i32
  %18 = icmp eq i32 %17, 0
  br i1 %18, label %19, label %20

19:                                               ; preds = %13
  store ptr null, ptr %2, align 8
  br label %22

20:                                               ; preds = %13
  %21 = load ptr, ptr %3, align 8
  store ptr %21, ptr %2, align 8
  br label %22

22:                                               ; preds = %20, %19
  %23 = load ptr, ptr %2, align 8
  ret ptr %23
}

; Function Attrs: nounwind uwtable
define dso_local zeroext i1 @str_is_identifier(ptr noundef %0) #0 {
  %2 = alloca i1, align 1
  %3 = alloca ptr, align 8
  %4 = alloca i8, align 1
  store ptr %0, ptr %3, align 8
  %5 = load ptr, ptr %3, align 8
  %6 = call ptr @scan_past_underscore(ptr noundef %5)
  store ptr %6, ptr %3, align 8
  %7 = load ptr, ptr %3, align 8
  %8 = icmp ne ptr %7, null
  br i1 %8, label %10, label %9

9:                                                ; preds = %1
  store i1 false, ptr %2, align 1
  br label %31

10:                                               ; preds = %1
  %11 = load ptr, ptr %3, align 8
  %12 = getelementptr inbounds i8, ptr %11, i32 1
  store ptr %12, ptr %3, align 8
  %13 = getelementptr inbounds i8, ptr %11, i64 0
  %14 = load i8, ptr %13, align 1
  store i8 %14, ptr %4, align 1
  %15 = load i8, ptr %4, align 1
  %16 = call zeroext i1 @char_is_lower(i8 noundef signext %15)
  br i1 %16, label %18, label %17

17:                                               ; preds = %10
  store i1 false, ptr %2, align 1
  br label %31

18:                                               ; preds = %10
  br label %19

19:                                               ; preds = %29, %18
  %20 = load ptr, ptr %3, align 8
  %21 = getelementptr inbounds i8, ptr %20, i32 1
  store ptr %21, ptr %3, align 8
  %22 = load i8, ptr %20, align 1
  store i8 %22, ptr %4, align 1
  %23 = sext i8 %22 to i32
  %24 = icmp ne i32 %23, 0
  br i1 %24, label %25, label %30

25:                                               ; preds = %19
  %26 = load i8, ptr %4, align 1
  %27 = call zeroext i1 @char_is_alphanum_(i8 noundef signext %26)
  br i1 %27, label %29, label %28

28:                                               ; preds = %25
  store i1 false, ptr %2, align 1
  br label %31

29:                                               ; preds = %25
  br label %19, !llvm.loop !14

30:                                               ; preds = %19
  store i1 true, ptr %2, align 1
  br label %31

31:                                               ; preds = %30, %28, %17, %9
  %32 = load i1, ptr %2, align 1
  ret i1 %32
}