; Function Attrs: nofree norecurse nosync nounwind memory(read, inaccessiblemem: none) uwtable
define dso_local noundef zeroext i1 @str_is_identifier(ptr nocapture noundef readonly %0) local_unnamed_addr #2 {
  br label %2

2:                                                ; preds = %4, %1
  %.0.i = phi ptr [ %0, %1 ], [ %5, %4 ]
  %3 = load i8, ptr %.0.i, align 1
  switch i8 %3, label %scan_past_underscore.exit [
    i8 95, label %4
    i8 0, label %scan_past_underscore.exit.thread
  ]

4:                                                ; preds = %2
  %5 = getelementptr inbounds i8, ptr %.0.i, i64 1
  br label %2, !llvm.loop !12

scan_past_underscore.exit:                        ; preds = %2
  %6 = add i8 %3, -97
  %7 = icmp ult i8 %6, 26
  br i1 %7, label %.preheader, label %scan_past_underscore.exit.thread

.preheader:                                       ; preds = %scan_past_underscore.exit, %9
  %.pn = phi ptr [ %.0, %9 ], [ %.0.i, %scan_past_underscore.exit ]
  %.0 = getelementptr inbounds i8, ptr %.pn, i64 1
  %8 = load i8, ptr %.0, align 1
  %.not8 = icmp eq i8 %8, 0
  br i1 %.not8, label %scan_past_underscore.exit.thread, label %9

9:                                                ; preds = %.preheader
  %10 = tail call fastcc zeroext i1 @char_is_alphanum_(i8 noundef signext %8)
  br i1 %10, label %.preheader, label %scan_past_underscore.exit.thread, !llvm.loop !14

scan_past_underscore.exit.thread:                 ; preds = %2, %.preheader, %9, %scan_past_underscore.exit
  %.06 = phi i1 [ false, %scan_past_underscore.exit ], [ %.not8, %9 ], [ %.not8, %.preheader ], [ false, %2 ]
  ret i1 %.06
}